target datalayout = "e-m:e-p270:32:32-p271:32:32-p272:64:64-i64:64-i128:128-f80:128-n8:16:32:64-S128"
target triple = "x86_64-pc-linux-gnu"

%struct.cbuf = type { %union.pthread_mutex_t, i32, i32, i32, i32, i32, i32, i32, i32, i32, i32, ptr }
%union.pthread_mutex_t = type { %struct.__pthread_mutex_s }
%struct.__pthread_mutex_s = type { i32, i32, i32, i32, i32, i16, i16, %struct.__pthread_internal_list }
%struct.__pthread_internal_list = type { ptr, ptr }

@.str.2 = private unnamed_addr constant [29 x i8] c"%s: pthread_mutex_lock(): %m\00", align 1
@.str.3 = private unnamed_addr constant [31 x i8] c"%s: pthread_mutex_unlock(): %m\00", align 1
@__func__.cbuf_reused = private unnamed_addr constant [12 x i8] c"cbuf_reused\00", align 1

; Function Attrs: nounwind uwtable
define dso_local i32 @cbuf_reused(ptr noundef %0) #0 {
  %2 = alloca ptr, align 8
  %3 = alloca i32, align 4
  %4 = alloca i32, align 4
  %5 = alloca i32, align 4
  store ptr %0, ptr %2, align 8
  call void @llvm.lifetime.start.p0(i64 4, ptr %3) #8
  br label %6

6:                                                ; preds = %1
  call void @llvm.lifetime.start.p0(i64 4, ptr %4) #8
  %7 = load ptr, ptr %2, align 8
  %8 = getelementptr inbounds nuw %struct.cbuf, ptr %7, i32 0, i32 0
  %9 = call i32 @pthread_mutex_lock(ptr noundef %8) #8
  store i32 %9, ptr %4, align 4
  %10 = load i32, ptr %4, align 4
  %11 = icmp ne i32 %10, 0
  br i1 %11, label %12, label %15

12:                                               ; preds = %6
  %13 = load i32, ptr %4, align 4
  %14 = call ptr @__errno_location() #9
  store i32 %13, ptr %14, align 4
  call void (ptr, ...) @fatal_abort(ptr noundef @.str.2, ptr noundef @__func__.cbuf_reused) #10
  unreachable

15:                                               ; preds = %6
  call void @llvm.lifetime.end.p0(i64 4, ptr %4) #8
  br label %16

16:                                               ; preds = %15
  br label %17

17:                                               ; preds = %16
  %18 = load ptr, ptr %2, align 8
  %19 = getelementptr inbounds nuw %struct.cbuf, ptr %18, i32 0, i32 9
  %20 = load i32, ptr %19, align 8
  %21 = load ptr, ptr %2, align 8
  %22 = getelementptr inbounds nuw %struct.cbuf, ptr %21, i32 0, i32 10
  %23 = load i32, ptr %22, align 4
  %24 = sub nsw i32 %20, %23
  %25 = load ptr, ptr %2, align 8
  %26 = getelementptr inbounds nuw %struct.cbuf, ptr %25, i32 0, i32 4
  %27 = load i32, ptr %26, align 4
  %28 = add nsw i32 %27, 1
  %29 = add nsw i32 %24, %28
  %30 = load ptr, ptr %2, align 8
  %31 = getelementptr inbounds nuw %struct.cbuf, ptr %30, i32 0, i32 4
  %32 = load i32, ptr %31, align 4
  %33 = add nsw i32 %32, 1
  %34 = srem i32 %29, %33
  store i32 %34, ptr %3, align 4
  br label %35

35:                                               ; preds = %17
  call void @llvm.lifetime.start.p0(i64 4, ptr %5) #8
  %36 = load ptr, ptr %2, align 8
  %37 = getelementptr inbounds nuw %struct.cbuf, ptr %36, i32 0, i32 0
  %38 = call i32 @pthread_mutex_unlock(ptr noundef %37) #8
  store i32 %38, ptr %5, align 4
  %39 = load i32, ptr %5, align 4
  %40 = icmp ne i32 %39, 0
  br i1 %40, label %41, label %44

41:                                               ; preds = %35
  %42 = load i32, ptr %5, align 4
  %43 = call ptr @__errno_location() #9
  store i32 %42, ptr %43, align 4
  call void (ptr, ...) @fatal_abort(ptr noundef @.str.3, ptr noundef @__func__.cbuf_reused) #10
  unreachable

44:                                               ; preds = %35
  call void @llvm.lifetime.end.p0(i64 4, ptr %5) #8
  br label %45

45:                                               ; preds = %44
  br label %46

46:                                               ; preds = %45
  %47 = load i32, ptr %3, align 4
  call void @llvm.lifetime.end.p0(i64 4, ptr %3) #8
  ret i32 %47
}