; Function Attrs: nounwind uwtable
define dso_local range(i32 -2147483646, 2147483647) i32 @cbuf_reused(ptr noundef %0) local_unnamed_addr #0 {
  %2 = tail call i32 @pthread_mutex_lock(ptr noundef %0) #15
  %.not = icmp eq i32 %2, 0
  br i1 %.not, label %5, label %3

3:                                                ; preds = %1
  %4 = tail call ptr @__errno_location() #14
  store i32 %2, ptr %4, align 4
  tail call void (ptr, ...) @fatal_abort(ptr noundef nonnull @.str.2, ptr noundef nonnull @__func__.cbuf_reused) #16
  unreachable

5:                                                ; preds = %1
  %6 = getelementptr inbounds nuw i8, ptr %0, i64 72
  %7 = load i32, ptr %6, align 8
  %8 = getelementptr inbounds nuw i8, ptr %0, i64 76
  %9 = load i32, ptr %8, align 4
  %10 = getelementptr inbounds nuw i8, ptr %0, i64 52
  %11 = load i32, ptr %10, align 4
  %12 = tail call i32 @pthread_mutex_unlock(ptr noundef %0) #15
  %.not11 = icmp eq i32 %12, 0
  br i1 %.not11, label %15, label %13

13:                                               ; preds = %5
  %14 = tail call ptr @__errno_location() #14
  store i32 %12, ptr %14, align 4
  tail call void (ptr, ...) @fatal_abort(ptr noundef nonnull @.str.3, ptr noundef nonnull @__func__.cbuf_reused) #16
  unreachable

15:                                               ; preds = %5
  %16 = sub i32 %7, %9
  %17 = add nsw i32 %11, 1
  %18 = add nsw i32 %16, %17
  %19 = srem i32 %18, %17
  ret i32 %19
}